target datalayout = "e-m:e-p270:32:32-p271:32:32-p272:64:64-i64:64-i128:128-f80:128-n8:16:32:64-S128"
target triple = "x86_64-pc-linux-gnu"

%class.JDK_Version = type { i32, i32, i32, i32, i32 }
%class.PathString = type { ptr }
%class.SystemProperty = type <{ %class.PathString, ptr, ptr, i8, i8, [6 x i8] }>

@_ZN9Arguments18_system_propertiesE = hidden global ptr null, align 8
@.str.33 = private unnamed_addr constant [19 x i8] c"Oracle Corporation\00", align 1
@.str.34 = private unnamed_addr constant [3 x i8] c"%u\00", align 1
@.str.35 = private unnamed_addr constant [29 x i8] c"java.vm.specification.vendor\00", align 1
@.str.36 = private unnamed_addr constant [30 x i8] c"java.vm.specification.version\00", align 1
@.str.37 = private unnamed_addr constant [15 x i8] c"java.vm.vendor\00", align 1
@_ZN11JDK_Version8_currentE = external global %class.JDK_Version, align 4
@_ZN14SystemPropertyC1EPKcS1_bb = hidden unnamed_addr alias void (ptr, ptr, ptr, i1, i1), ptr @_ZN14SystemPropertyC2EPKcS1_bb

; Function Attrs: mustprogress nounwind uwtable
define linkonce_odr hidden void @_ZN14SystemProperty8set_nextEPS_(ptr noundef nonnull align 8 dereferenceable(26) %0, ptr noundef %1) #1 comdat align 2 {
  %3 = alloca ptr, align 8
  %4 = alloca ptr, align 8
  store ptr %0, ptr %3, align 8
  store ptr %1, ptr %4, align 8
  %5 = load ptr, ptr %3, align 8
  %6 = load ptr, ptr %4, align 8
  %7 = getelementptr inbounds %class.SystemProperty, ptr %5, i32 0, i32 2
  store ptr %6, ptr %7, align 8
  ret void
}

; Function Attrs: mustprogress nounwind uwtable
define linkonce_odr hidden noundef ptr @_ZNK14SystemProperty4nextEv(ptr noundef nonnull align 8 dereferenceable(26) %0) #1 comdat align 2 {
  %2 = alloca ptr, align 8
  store ptr %0, ptr %2, align 8
  %3 = load ptr, ptr %2, align 8
  %4 = getelementptr inbounds %class.SystemProperty, ptr %3, i32 0, i32 2
  %5 = load ptr, ptr %4, align 8
  ret ptr %5
}

; Function Attrs: mustprogress nounwind uwtable
define hidden void @_ZN9Arguments16PropertyList_addEPP14SystemPropertyS1_(ptr noundef %0, ptr noundef %1) #1 align 2 {
  %3 = alloca ptr, align 8
  %4 = alloca ptr, align 8
  %5 = alloca ptr, align 8
  store ptr %0, ptr %3, align 8
  store ptr %1, ptr %4, align 8
  %6 = load ptr, ptr %3, align 8
  %7 = load ptr, ptr %6, align 8
  store ptr %7, ptr %5, align 8
  %8 = load ptr, ptr %5, align 8
  %9 = icmp eq ptr %8, null
  br i1 %9, label %10, label %13

10:                                               ; preds = %2
  %11 = load ptr, ptr %4, align 8
  %12 = load ptr, ptr %3, align 8
  store ptr %11, ptr %12, align 8
  br label %24

13:                                               ; preds = %2
  br label %14

14:                                               ; preds = %18, %13
  %15 = load ptr, ptr %5, align 8
  %16 = call noundef ptr @_ZNK14SystemProperty4nextEv(ptr noundef nonnull align 8 dereferenceable(26) %15)
  %17 = icmp ne ptr %16, null
  br i1 %17, label %18, label %21

18:                                               ; preds = %14
  %19 = load ptr, ptr %5, align 8
  %20 = call noundef ptr @_ZNK14SystemProperty4nextEv(ptr noundef nonnull align 8 dereferenceable(26) %19)
  store ptr %20, ptr %5, align 8
  br label %14, !llvm.loop !8

21:                                               ; preds = %14
  %22 = load ptr, ptr %5, align 8
  %23 = load ptr, ptr %4, align 8
  call void @_ZN14SystemProperty8set_nextEPS_(ptr noundef nonnull align 8 dereferenceable(26) %22, ptr noundef %23)
  br label %24

24:                                               ; preds = %21, %10
  ret void
}

; Function Attrs: mustprogress nounwind uwtable
define linkonce_odr hidden noundef i32 @_ZNK11JDK_Version13major_versionEv(ptr noundef nonnull align 4 dereferenceable(20) %0) #1 comdat align 2 {
  %2 = alloca ptr, align 8
  store ptr %0, ptr %2, align 8
  %3 = load ptr, ptr %2, align 8
  %4 = getelementptr inbounds %class.JDK_Version, ptr %3, i32 0, i32 0
  %5 = load i32, ptr %4, align 4
  ret i32 %5
}

; Function Attrs: mustprogress nounwind uwtable
define linkonce_odr hidden void @_ZN11JDK_Version7currentEv(ptr dead_on_unwind noalias writable sret(%class.JDK_Version) align 4 %0) #1 comdat align 2 {
  call void @llvm.memcpy.p0.p0.i64(ptr align 4 %0, ptr align 4 @_ZN11JDK_Version8_currentE, i64 20, i1 false)
  ret void
}

; Function Attrs: mustprogress nounwind uwtable
define hidden void @_ZN9Arguments39init_version_specific_system_propertiesEv() #1 align 2 {
  %1 = alloca i64, align 8
  %2 = alloca i8, align 1
  %3 = alloca i64, align 8
  %4 = alloca i8, align 1
  %5 = alloca i64, align 8
  %6 = alloca i8, align 1
  %7 = alloca i64, align 8
  %8 = alloca i64, align 8
  %9 = alloca i64, align 8
  %10 = alloca [16 x i8], align 16
  %11 = alloca ptr, align 8
  %12 = alloca i32, align 4
  %13 = alloca %class.JDK_Version, align 4
  store ptr @.str.33, ptr %11, align 8
  call void @_ZN11JDK_Version7currentEv(ptr dead_on_unwind writable sret(%class.JDK_Version) align 4 %13)
  %14 = call noundef i32 @_ZNK11JDK_Version13major_versionEv(ptr noundef nonnull align 4 dereferenceable(20) %13)
  store i32 %14, ptr %12, align 4
  %15 = getelementptr inbounds [16 x i8], ptr %10, i64 0, i64 0
  %16 = load i32, ptr %12, align 4
  %17 = call i32 (ptr, i64, ptr, ...) @jio_snprintf(ptr noundef %15, i64 noundef 16, ptr noundef @.str.34, i32 noundef %16)
  store i64 32, ptr %7, align 8
  %18 = load i64, ptr %7, align 8
  store i64 %18, ptr %5, align 8
  store i8 19, ptr %6, align 1
  %19 = load i64, ptr %5, align 8
  %20 = load i8, ptr %6, align 1
  %21 = call noundef ptr @_Z12AllocateHeapm8MEMFLAGSN17AllocFailStrategy13AllocFailEnumE(i64 noundef %19, i8 noundef zeroext %20, i32 noundef 0) #13
  %22 = load ptr, ptr %11, align 8
  call void @_ZN14SystemPropertyC1EPKcS1_bb(ptr noundef nonnull align 8 dereferenceable(26) %21, ptr noundef @.str.35, ptr noundef %22, i1 noundef zeroext false, i1 noundef zeroext false)
  call void @_ZN9Arguments16PropertyList_addEPP14SystemPropertyS1_(ptr noundef @_ZN9Arguments18_system_propertiesE, ptr noundef %21)
  store i64 32, ptr %8, align 8
  %23 = load i64, ptr %8, align 8
  store i64 %23, ptr %3, align 8
  store i8 19, ptr %4, align 1
  %24 = load i64, ptr %3, align 8
  %25 = load i8, ptr %4, align 1
  %26 = call noundef ptr @_Z12AllocateHeapm8MEMFLAGSN17AllocFailStrategy13AllocFailEnumE(i64 noundef %24, i8 noundef zeroext %25, i32 noundef 0) #13
  %27 = getelementptr inbounds [16 x i8], ptr %10, i64 0, i64 0
  call void @_ZN14SystemPropertyC1EPKcS1_bb(ptr noundef nonnull align 8 dereferenceable(26) %26, ptr noundef @.str.36, ptr noundef %27, i1 noundef zeroext false, i1 noundef zeroext false)
  call void @_ZN9Arguments16PropertyList_addEPP14SystemPropertyS1_(ptr noundef @_ZN9Arguments18_system_propertiesE, ptr noundef %26)
  store i64 32, ptr %9, align 8
  %28 = load i64, ptr %9, align 8
  store i64 %28, ptr %1, align 8
  store i8 19, ptr %2, align 1
  %29 = load i64, ptr %1, align 8
  %30 = load i8, ptr %2, align 1
  %31 = call noundef ptr @_Z12AllocateHeapm8MEMFLAGSN17AllocFailStrategy13AllocFailEnumE(i64 noundef %29, i8 noundef zeroext %30, i32 noundef 0) #13
  %32 = call noundef ptr @_ZN19Abstract_VM_Version9vm_vendorEv()
  call void @_ZN14SystemPropertyC1EPKcS1_bb(ptr noundef nonnull align 8 dereferenceable(26) %31, ptr noundef @.str.37, ptr noundef %32, i1 noundef zeroext false, i1 noundef zeroext false)
  call void @_ZN9Arguments16PropertyList_addEPP14SystemPropertyS1_(ptr noundef @_ZN9Arguments18_system_propertiesE, ptr noundef %31)
  ret void
}