; Function Attrs: mustprogress nounwind uwtable
define hidden void @_ZN9Arguments39init_version_specific_system_propertiesEv() local_unnamed_addr #0 align 2 {
  %1 = alloca [16 x i8], align 16
  %.sroa.0.0.copyload = load i32, ptr @_ZN11JDK_Version8_currentE, align 4
  %2 = call i32 (ptr, i64, ptr, ...) @jio_snprintf(ptr noundef nonnull %1, i64 noundef 16, ptr noundef nonnull @.str.34, i32 noundef %.sroa.0.0.copyload) #31
  %3 = call noundef ptr @_Z12AllocateHeapm8MEMFLAGSN17AllocFailStrategy13AllocFailEnumE(i64 noundef 32, i8 noundef zeroext 19, i32 noundef 0) #31
  %4 = call noundef ptr @_Z12AllocateHeapm8MEMFLAGSN17AllocFailStrategy13AllocFailEnumE(i64 noundef 19, i8 noundef zeroext 19, i32 noundef 0) #31
  store ptr %4, ptr %3, align 8
  call void @llvm.memcpy.p0.p0.i64(ptr noundef nonnull align 1 dereferenceable(19) %4, ptr noundef nonnull readonly align 1 dereferenceable(19) @.str.33, i64 19, i1 false) #31
  %5 = call noundef ptr @_Z12AllocateHeapm8MEMFLAGSN17AllocFailStrategy13AllocFailEnumE(i64 noundef 29, i8 noundef zeroext 19, i32 noundef 0) #31
  %6 = getelementptr inbounds i8, ptr %3, i64 8
  store ptr %5, ptr %6, align 8
  call void @llvm.memcpy.p0.p0.i64(ptr noundef nonnull align 1 dereferenceable(29) %5, ptr noundef nonnull readonly align 1 dereferenceable(29) @.str.35, i64 29, i1 false) #31
  %7 = getelementptr inbounds i8, ptr %3, i64 16
  store ptr null, ptr %7, align 8
  %8 = getelementptr inbounds i8, ptr %3, i64 24
  store i8 0, ptr %8, align 8
  %9 = getelementptr inbounds i8, ptr %3, i64 25
  store i8 0, ptr %9, align 1
  %10 = load ptr, ptr @_ZN9Arguments18_system_propertiesE, align 8
  %11 = icmp eq ptr %10, null
  br i1 %11, label %_ZN9Arguments16PropertyList_addEPP14SystemPropertyS1_.exit, label %.preheader.i

.preheader.i:                                     ; preds = %0, %.preheader.i
  %.0.i = phi ptr [ %13, %.preheader.i ], [ %10, %0 ]
  %12 = getelementptr inbounds i8, ptr %.0.i, i64 16
  %13 = load ptr, ptr %12, align 8
  %.not.i = icmp eq ptr %13, null
  br i1 %.not.i, label %_ZN9Arguments16PropertyList_addEPP14SystemPropertyS1_.exit.loopexit, label %.preheader.i, !llvm.loop !8

_ZN9Arguments16PropertyList_addEPP14SystemPropertyS1_.exit.loopexit: ; preds = %.preheader.i
  %14 = getelementptr inbounds i8, ptr %.0.i, i64 16
  br label %_ZN9Arguments16PropertyList_addEPP14SystemPropertyS1_.exit

_ZN9Arguments16PropertyList_addEPP14SystemPropertyS1_.exit: ; preds = %_ZN9Arguments16PropertyList_addEPP14SystemPropertyS1_.exit.loopexit, %0
  %.sink.i = phi ptr [ @_ZN9Arguments18_system_propertiesE, %0 ], [ %14, %_ZN9Arguments16PropertyList_addEPP14SystemPropertyS1_.exit.loopexit ]
  store ptr %3, ptr %.sink.i, align 8
  %15 = call noundef ptr @_Z12AllocateHeapm8MEMFLAGSN17AllocFailStrategy13AllocFailEnumE(i64 noundef 32, i8 noundef zeroext 19, i32 noundef 0) #31
  %16 = call i64 @strlen(ptr noundef nonnull readonly dereferenceable(1) %1) #30
  %17 = add i64 %16, 1
  %18 = call noundef ptr @_Z12AllocateHeapm8MEMFLAGSN17AllocFailStrategy13AllocFailEnumE(i64 noundef %17, i8 noundef zeroext 19, i32 noundef 0) #31
  store ptr %18, ptr %15, align 8
  %19 = call ptr @strcpy(ptr noundef nonnull dereferenceable(1) %18, ptr noundef nonnull readonly dereferenceable(1) %1) #31
  %20 = call noundef ptr @_Z12AllocateHeapm8MEMFLAGSN17AllocFailStrategy13AllocFailEnumE(i64 noundef 30, i8 noundef zeroext 19, i32 noundef 0) #31
  %21 = getelementptr inbounds i8, ptr %15, i64 8
  store ptr %20, ptr %21, align 8
  call void @llvm.memcpy.p0.p0.i64(ptr noundef nonnull align 1 dereferenceable(30) %20, ptr noundef nonnull readonly align 1 dereferenceable(30) @.str.36, i64 30, i1 false) #31
  %22 = getelementptr inbounds i8, ptr %15, i64 16
  store ptr null, ptr %22, align 8
  %23 = getelementptr inbounds i8, ptr %15, i64 24
  store i8 0, ptr %23, align 8
  %24 = getelementptr inbounds i8, ptr %15, i64 25
  store i8 0, ptr %24, align 1
  %25 = load ptr, ptr @_ZN9Arguments18_system_propertiesE, align 8
  %26 = icmp eq ptr %25, null
  br i1 %26, label %_ZN9Arguments16PropertyList_addEPP14SystemPropertyS1_.exit14, label %.preheader.i10

.preheader.i10:                                   ; preds = %_ZN9Arguments16PropertyList_addEPP14SystemPropertyS1_.exit, %.preheader.i10
  %.0.i11 = phi ptr [ %28, %.preheader.i10 ], [ %25, %_ZN9Arguments16PropertyList_addEPP14SystemPropertyS1_.exit ]
  %27 = getelementptr inbounds i8, ptr %.0.i11, i64 16
  %28 = load ptr, ptr %27, align 8
  %.not.i12 = icmp eq ptr %28, null
  br i1 %.not.i12, label %_ZN9Arguments16PropertyList_addEPP14SystemPropertyS1_.exit14.loopexit, label %.preheader.i10, !llvm.loop !8

_ZN9Arguments16PropertyList_addEPP14SystemPropertyS1_.exit14.loopexit: ; preds = %.preheader.i10
  %29 = getelementptr inbounds i8, ptr %.0.i11, i64 16
  br label %_ZN9Arguments16PropertyList_addEPP14SystemPropertyS1_.exit14

_ZN9Arguments16PropertyList_addEPP14SystemPropertyS1_.exit14: ; preds = %_ZN9Arguments16PropertyList_addEPP14SystemPropertyS1_.exit14.loopexit, %_ZN9Arguments16PropertyList_addEPP14SystemPropertyS1_.exit
  %.sink.i13 = phi ptr [ @_ZN9Arguments18_system_propertiesE, %_ZN9Arguments16PropertyList_addEPP14SystemPropertyS1_.exit ], [ %29, %_ZN9Arguments16PropertyList_addEPP14SystemPropertyS1_.exit14.loopexit ]
  store ptr %15, ptr %.sink.i13, align 8
  %30 = call noundef ptr @_Z12AllocateHeapm8MEMFLAGSN17AllocFailStrategy13AllocFailEnumE(i64 noundef 32, i8 noundef zeroext 19, i32 noundef 0) #31
  %31 = call noundef ptr @_ZN19Abstract_VM_Version9vm_vendorEv() #31
  %32 = icmp eq ptr %31, null
  br i1 %32, label %33, label %34

33:                                               ; preds = %_ZN9Arguments16PropertyList_addEPP14SystemPropertyS1_.exit14
  store ptr null, ptr %30, align 8
  br label %_ZN14SystemPropertyC2EPKcS1_bb.exit

34:                                               ; preds = %_ZN9Arguments16PropertyList_addEPP14SystemPropertyS1_.exit14
  %35 = call i64 @strlen(ptr noundef nonnull readonly dereferenceable(1) %31) #30
  %36 = add i64 %35, 1
  %37 = call noundef ptr @_Z12AllocateHeapm8MEMFLAGSN17AllocFailStrategy13AllocFailEnumE(i64 noundef %36, i8 noundef zeroext 19, i32 noundef 0) #31
  store ptr %37, ptr %30, align 8
  %38 = call ptr @strcpy(ptr noundef nonnull dereferenceable(1) %37, ptr noundef nonnull readonly dereferenceable(1) %31) #31
  br label %_ZN14SystemPropertyC2EPKcS1_bb.exit

_ZN14SystemPropertyC2EPKcS1_bb.exit:              ; preds = %33, %34
  %39 = call noundef ptr @_Z12AllocateHeapm8MEMFLAGSN17AllocFailStrategy13AllocFailEnumE(i64 noundef 15, i8 noundef zeroext 19, i32 noundef 0) #31
  %40 = getelementptr inbounds i8, ptr %30, i64 8
  store ptr %39, ptr %40, align 8
  call void @llvm.memcpy.p0.p0.i64(ptr noundef nonnull align 1 dereferenceable(15) %39, ptr noundef nonnull readonly align 1 dereferenceable(15) @.str.37, i64 15, i1 false) #31
  %41 = getelementptr inbounds i8, ptr %30, i64 16
  store ptr null, ptr %41, align 8
  %42 = getelementptr inbounds i8, ptr %30, i64 24
  store i8 0, ptr %42, align 8
  %43 = getelementptr inbounds i8, ptr %30, i64 25
  store i8 0, ptr %43, align 1
  %44 = load ptr, ptr @_ZN9Arguments18_system_propertiesE, align 8
  %45 = icmp eq ptr %44, null
  br i1 %45, label %_ZN9Arguments16PropertyList_addEPP14SystemPropertyS1_.exit19, label %.preheader.i15

.preheader.i15:                                   ; preds = %_ZN14SystemPropertyC2EPKcS1_bb.exit, %.preheader.i15
  %.0.i16 = phi ptr [ %47, %.preheader.i15 ], [ %44, %_ZN14SystemPropertyC2EPKcS1_bb.exit ]
  %46 = getelementptr inbounds i8, ptr %.0.i16, i64 16
  %47 = load ptr, ptr %46, align 8
  %.not.i17 = icmp eq ptr %47, null
  br i1 %.not.i17, label %_ZN9Arguments16PropertyList_addEPP14SystemPropertyS1_.exit19.loopexit, label %.preheader.i15, !llvm.loop !8

_ZN9Arguments16PropertyList_addEPP14SystemPropertyS1_.exit19.loopexit: ; preds = %.preheader.i15
  %48 = getelementptr inbounds i8, ptr %.0.i16, i64 16
  br label %_ZN9Arguments16PropertyList_addEPP14SystemPropertyS1_.exit19

_ZN9Arguments16PropertyList_addEPP14SystemPropertyS1_.exit19: ; preds = %_ZN9Arguments16PropertyList_addEPP14SystemPropertyS1_.exit19.loopexit, %_ZN14SystemPropertyC2EPKcS1_bb.exit
  %.sink.i18 = phi ptr [ @_ZN9Arguments18_system_propertiesE, %_ZN14SystemPropertyC2EPKcS1_bb.exit ], [ %48, %_ZN9Arguments16PropertyList_addEPP14SystemPropertyS1_.exit19.loopexit ]
  store ptr %30, ptr %.sink.i18, align 8
  ret void
}